(lp0
(irejestracje.views
WizytaWpis
p1
(dp2
S'fizjoterapeuta'
p3
V\u0141ukasz Radziszewski
p4
sS'dom'
p5
V5
p6
sS'dzien'
p7
V2017-02-12
p8
sS'miasto'
p9
VBrzeg
p10
sS'godziny'
p11
(lp12
I8
asS'ulica'
p13
VOgrodowa
p14
sba(irejestracje.views
WizytaWpis
p15
(dp16
g3
V\u0141ukasz Radziszewski
p17
sg5
V5
p18
sg7
V2017-02-12
p19
sg9
VBrzeg
p20
sg11
(lp21
I8
asg13
VOgrodowa
p22
sba.